; Function Attrs: mustprogress nofree norecurse nosync nounwind willreturn memory(argmem: readwrite) uwtable
define dso_local void @_ZN4llvm16TargetIRAnalysisC2ESt8functionIFNS_19TargetTransformInfoERKNS_8FunctionEEE(ptr nocapture noundef nonnull writeonly align 8 dereferenceable(32) %0, ptr nocapture noundef %1) unnamed_addr #5 align 2 {
  %3 = getelementptr inbounds nuw i8, ptr %0, i64 24
  %4 = getelementptr inbounds nuw i8, ptr %1, i64 24
  tail call void @llvm.memset.p0.i64(ptr noundef nonnull align 8 dereferenceable(24) %0, i8 0, i64 24, i1 false)
  %5 = load ptr, ptr %4, align 8
  store ptr %5, ptr %3, align 8
  %6 = getelementptr inbounds nuw i8, ptr %1, i64 16
  %7 = load ptr, ptr %6, align 8
  %.not.i.i.not.i = icmp eq ptr %7, null
  br i1 %.not.i.i.not.i, label %_ZNSt8functionIFN4llvm19TargetTransformInfoERKNS0_8FunctionEEEC2EOS6_.exit, label %8

8:                                                ; preds = %2
  %9 = getelementptr inbounds nuw i8, ptr %0, i64 16
  tail call void @llvm.memcpy.p0.p0.i64(ptr noundef nonnull align 8 dereferenceable(16) %0, ptr noundef nonnull align 8 dereferenceable(16) %1, i64 16, i1 false)
  %10 = load ptr, ptr %6, align 8
  store ptr %10, ptr %9, align 8
  tail call void @llvm.memset.p0.i64(ptr noundef nonnull align 8 dereferenceable(16) %6, i8 0, i64 16, i1 false)
  br label %_ZNSt8functionIFN4llvm19TargetTransformInfoERKNS0_8FunctionEEEC2EOS6_.exit

_ZNSt8functionIFN4llvm19TargetTransformInfoERKNS0_8FunctionEEEC2EOS6_.exit: ; preds = %2, %8
  ret void
}